; Function Attrs: mustprogress nounwind uwtable
define hidden noundef ptr @_ZNK5Klass13external_nameEv(ptr nocapture noundef nonnull readonly align 8 dereferenceable(196) %0) local_unnamed_addr #0 align 2 {
  %2 = getelementptr inbounds i8, ptr %0, i64 12
  %3 = load i32, ptr %2, align 4
  %4 = icmp slt i32 %3, 5
  br i1 %4, label %5, label %28

5:                                                ; preds = %1
  %6 = getelementptr inbounds i8, ptr %0, i64 164
  %.sroa.0.0.copyload.i.i = load i32, ptr %6, align 4
  %7 = and i32 %.sroa.0.0.copyload.i.i, 67108864
  %.not10 = icmp eq i32 %7, 0
  br i1 %.not10, label %55, label %8

8:                                                ; preds = %5
  %9 = getelementptr inbounds i8, ptr %0, i64 24
  %10 = load ptr, ptr %9, align 8
  %11 = getelementptr inbounds i8, ptr %10, i64 4
  %12 = load i16, ptr %11, align 4
  %13 = zext i16 %12 to i32
  %14 = zext i16 %12 to i64
  %15 = add nuw nsw i64 %14, 1
  %16 = tail call noundef ptr @_Z23resource_allocate_bytesmN17AllocFailStrategy13AllocFailEnumE(i64 noundef %15, i32 noundef 0) #21
  %17 = add nuw nsw i32 %13, 1
  %18 = tail call noundef ptr @_ZNK6Symbol22as_klass_external_nameEPci(ptr noundef nonnull align 4 dereferenceable(8) %10, ptr noundef %16, i32 noundef %17) #21
  %.not.i = icmp eq i16 %12, 0
  br i1 %.not.i, label %_ZL27convert_hidden_name_to_javaP6Symbol.exit, label %.lr.ph.i

19:                                               ; preds = %.lr.ph.i
  %20 = add nsw i32 %.013.i, -1
  %21 = icmp sgt i32 %.013.i, 1
  br i1 %21, label %.lr.ph.i, label %_ZL27convert_hidden_name_to_javaP6Symbol.exit, !llvm.loop !15

.lr.ph.i:                                         ; preds = %8, %19
  %.013.i = phi i32 [ %20, %19 ], [ %13, %8 ]
  %22 = zext nneg i32 %.013.i to i64
  %23 = getelementptr inbounds i8, ptr %16, i64 %22
  %24 = load i8, ptr %23, align 1
  %25 = icmp eq i8 %24, 43
  br i1 %25, label %26, label %19

26:                                               ; preds = %.lr.ph.i
  %27 = getelementptr inbounds i8, ptr %16, i64 %22
  store i8 47, ptr %27, align 1
  br label %_ZL27convert_hidden_name_to_javaP6Symbol.exit

28:                                               ; preds = %1
  %29 = icmp eq i32 %3, 6
  br i1 %29, label %30, label %55

30:                                               ; preds = %28
  %31 = getelementptr inbounds i8, ptr %0, i64 224
  %32 = load ptr, ptr %31, align 8
  %33 = getelementptr inbounds i8, ptr %32, i64 164
  %.sroa.0.0.copyload.i.i5 = load i32, ptr %33, align 4
  %34 = and i32 %.sroa.0.0.copyload.i.i5, 67108864
  %.not = icmp eq i32 %34, 0
  br i1 %.not, label %55, label %35

35:                                               ; preds = %30
  %36 = getelementptr inbounds i8, ptr %0, i64 24
  %37 = load ptr, ptr %36, align 8
  %38 = getelementptr inbounds i8, ptr %37, i64 4
  %39 = load i16, ptr %38, align 4
  %40 = zext i16 %39 to i32
  %41 = zext i16 %39 to i64
  %42 = add nuw nsw i64 %41, 1
  %43 = tail call noundef ptr @_Z23resource_allocate_bytesmN17AllocFailStrategy13AllocFailEnumE(i64 noundef %42, i32 noundef 0) #21
  %44 = add nuw nsw i32 %40, 1
  %45 = tail call noundef ptr @_ZNK6Symbol22as_klass_external_nameEPci(ptr noundef nonnull align 4 dereferenceable(8) %37, ptr noundef %43, i32 noundef %44) #21
  %.not.i6 = icmp eq i16 %39, 0
  br i1 %.not.i6, label %_ZL27convert_hidden_name_to_javaP6Symbol.exit, label %.lr.ph.i7

46:                                               ; preds = %.lr.ph.i7
  %47 = add nsw i32 %.013.i8, -1
  %48 = icmp sgt i32 %.013.i8, 1
  br i1 %48, label %.lr.ph.i7, label %_ZL27convert_hidden_name_to_javaP6Symbol.exit, !llvm.loop !15

.lr.ph.i7:                                        ; preds = %35, %46
  %.013.i8 = phi i32 [ %47, %46 ], [ %40, %35 ]
  %49 = zext nneg i32 %.013.i8 to i64
  %50 = getelementptr inbounds i8, ptr %43, i64 %49
  %51 = load i8, ptr %50, align 1
  %52 = icmp eq i8 %51, 43
  br i1 %52, label %53, label %46

53:                                               ; preds = %.lr.ph.i7
  %54 = getelementptr inbounds i8, ptr %43, i64 %49
  store i8 47, ptr %54, align 1
  br label %_ZL27convert_hidden_name_to_javaP6Symbol.exit

55:                                               ; preds = %28, %30, %5
  %56 = getelementptr inbounds i8, ptr %0, i64 24
  %57 = load ptr, ptr %56, align 8
  %58 = icmp eq ptr %57, null
  br i1 %58, label %_ZL27convert_hidden_name_to_javaP6Symbol.exit, label %59

59:                                               ; preds = %55
  %60 = tail call noundef ptr @_ZNK6Symbol22as_klass_external_nameEv(ptr noundef nonnull align 4 dereferenceable(8) %57) #21
  br label %_ZL27convert_hidden_name_to_javaP6Symbol.exit

_ZL27convert_hidden_name_to_javaP6Symbol.exit:    ; preds = %46, %19, %53, %35, %26, %8, %55, %59
  %.0 = phi ptr [ %60, %59 ], [ @.str.18, %55 ], [ %16, %8 ], [ %16, %26 ], [ %43, %35 ], [ %43, %53 ], [ %16, %19 ], [ %43, %46 ]
  ret ptr %.0
}